ccollections
OrderedDict
p0
((lp1
(lp2
S'Soft Sip'
p3
ag0
((lp4
(lp5
S'Hard Puff'
p6
acnumpy.core.multiarray
scalar
p7
(cnumpy
dtype
p8
(S'f8'
p9
I0
I1
tp10
Rp11
(I3
S'<'
p12
NNNI-1
I-1
I0
tp13
bS'\x14;\xb1\x13;\xb1\x83?'
p14
tp15
Rp16
aa(lp17
S'Hard Sip'
p18
ag7
(g11
S'7\xa4\x183k\x12\xd2?'
p19
tp20
Rp21
aa(lp22
S'Soft Puff'
p23
ag7
(g11
S'\x14;\xb1\x13;\xb1\x83?'
p24
tp25
Rp26
aa(lp27
g3
ag7
(g11
S'\x0c$\xd6\x8d@Y\xe6?'
p28
tp29
Rp30
aatp31
Rp32
aa(lp33
g23
ag0
((lp34
(lp35
g6
ag7
(g11
S'\xea\t\xcb\x14n\xec\x8f?'
p36
tp37
Rp38
aa(lp39
g18
ag7
(g11
S'\x15;\xb1\x13;\xb1\x83?'
p40
tp41
Rp42
aa(lp43
g23
ag7
(g11
S'\x00J\x0fo\xc4\xe2\xee?'
p44
tp45
Rp46
aa(lp47
g3
ag7
(g11
S'\x15;\xb1\x13;\xb1\x83?'
p48
tp49
Rp50
aatp51
Rp52
aa(lp53
g6
ag0
((lp54
(lp55
g6
ag7
(g11
S'\x00\x84\x9d\xfc\n\xdb\xed?'
p56
tp57
Rp58
aa(lp59
g18
ag7
(g11
S'\x14;\xb1\x13;\xb1\x83?'
p60
tp61
Rp62
aa(lp63
g23
ag7
(g11
S'~"O\xac\xb2v\xa8?'
p64
tp65
Rp66
aa(lp67
g3
ag7
(g11
S'\x14;\xb1\x13;\xb1\x83?'
p68
tp69
Rp70
aatp71
Rp72
aa(lp73
g18
ag0
((lp74
(lp75
g6
ag7
(g11
S'\x15;\xb1\x13;\xb1\x83?'
p76
tp77
Rp78
aa(lp79
g18
ag7
(g11
S'0\x9c\xac:\xda\x89\xee?'
p80
tp81
Rp82
aa(lp83
g23
ag7
(g11
S'\x15;\xb1\x13;\xb1\x83?'
p84
tp85
Rp86
aa(lp87
g3
ag7
(g11
S'\x1e?\xbb\x96}\x13\x9b?'
p88
tp89
Rp90
aatp91
Rp92
aatp93
Rp94
.